target datalayout = "e-m:e-p270:32:32-p271:32:32-p272:64:64-i64:64-i128:128-f80:128-n8:16:32:64-S128"
target triple = "x86_64-pc-linux-gnu"

%struct.CRYPTO_REF_COUNT = type { i32 }
%struct.bio_st = type { ptr, ptr, ptr, ptr, ptr, i32, i32, i32, i32, i32, ptr, ptr, ptr, %struct.CRYPTO_REF_COUNT, i64, i64, %struct.crypto_ex_data_st }
%struct.crypto_ex_data_st = type { ptr, ptr }
%struct.bio_method_st = type { i32, ptr, ptr, ptr, ptr, ptr, ptr, ptr, ptr, ptr, ptr, ptr, ptr, ptr }
%struct.bio_mmsg_cb_args_st = type { ptr, i64, i64, i64, ptr }

@.str = private unnamed_addr constant [32 x i8] c"../openssl/crypto/bio/bio_lib.c\00", align 1
@__func__.BIO_sendmmsg = private unnamed_addr constant [13 x i8] c"BIO_sendmmsg\00", align 1

; Function Attrs: nounwind uwtable
define internal i64 @bio_call_callback(ptr noundef %0, i32 noundef %1, ptr noundef %2, i64 noundef %3, i32 noundef %4, i64 noundef %5, i64 noundef %6, ptr noundef %7) #0 {
  %9 = alloca i64, align 8
  %10 = alloca ptr, align 8
  %11 = alloca i32, align 4
  %12 = alloca ptr, align 8
  %13 = alloca i64, align 8
  %14 = alloca i32, align 4
  %15 = alloca i64, align 8
  %16 = alloca i64, align 8
  %17 = alloca ptr, align 8
  %18 = alloca i64, align 8
  %19 = alloca i32, align 4
  %20 = alloca i32, align 4
  store ptr %0, ptr %10, align 8, !tbaa !10
  store i32 %1, ptr %11, align 4, !tbaa !26
  store ptr %2, ptr %12, align 8, !tbaa !33
  store i64 %3, ptr %13, align 8, !tbaa !34
  store i32 %4, ptr %14, align 4, !tbaa !26
  store i64 %5, ptr %15, align 8, !tbaa !34
  store i64 %6, ptr %16, align 8, !tbaa !34
  store ptr %7, ptr %17, align 8, !tbaa !35
  call void @llvm.lifetime.start.p0(i64 8, ptr %18) #5
  %21 = load i64, ptr %16, align 8, !tbaa !34
  store i64 %21, ptr %18, align 8, !tbaa !34
  call void @llvm.lifetime.start.p0(i64 4, ptr %19) #5
  %22 = load ptr, ptr %10, align 8, !tbaa !10
  %23 = getelementptr inbounds nuw %struct.bio_st, ptr %22, i32 0, i32 3
  %24 = load ptr, ptr %23, align 8, !tbaa !29
  %25 = icmp ne ptr %24, null
  br i1 %25, label %26, label %40

26:                                               ; preds = %8
  %27 = load ptr, ptr %10, align 8, !tbaa !10
  %28 = getelementptr inbounds nuw %struct.bio_st, ptr %27, i32 0, i32 3
  %29 = load ptr, ptr %28, align 8, !tbaa !29
  %30 = load ptr, ptr %10, align 8, !tbaa !10
  %31 = load i32, ptr %11, align 4, !tbaa !26
  %32 = load ptr, ptr %12, align 8, !tbaa !33
  %33 = load i64, ptr %13, align 8, !tbaa !34
  %34 = load i32, ptr %14, align 4, !tbaa !26
  %35 = load i64, ptr %15, align 8, !tbaa !34
  %36 = load i64, ptr %16, align 8, !tbaa !34
  %37 = trunc i64 %36 to i32
  %38 = load ptr, ptr %17, align 8, !tbaa !35
  %39 = call i64 %29(ptr noundef %30, i32 noundef %31, ptr noundef %32, i64 noundef %33, i32 noundef %34, i64 noundef %35, i32 noundef %37, ptr noundef %38)
  store i64 %39, ptr %9, align 8
  store i32 1, ptr %20, align 4
  br label %101

40:                                               ; preds = %8
  %41 = load i32, ptr %11, align 4, !tbaa !26
  %42 = and i32 %41, -129
  store i32 %42, ptr %19, align 4, !tbaa !26
  %43 = load i32, ptr %19, align 4, !tbaa !26
  %44 = icmp eq i32 %43, 2
  br i1 %44, label %51, label %45

45:                                               ; preds = %40
  %46 = load i32, ptr %19, align 4, !tbaa !26
  %47 = icmp eq i32 %46, 3
  br i1 %47, label %51, label %48

48:                                               ; preds = %45
  %49 = load i32, ptr %19, align 4, !tbaa !26
  %50 = icmp eq i32 %49, 5
  br i1 %50, label %51, label %58

51:                                               ; preds = %48, %45, %40
  %52 = load i64, ptr %13, align 8, !tbaa !34
  %53 = icmp ugt i64 %52, 2147483647
  br i1 %53, label %54, label %55

54:                                               ; preds = %51
  store i64 -1, ptr %9, align 8
  store i32 1, ptr %20, align 4
  br label %101

55:                                               ; preds = %51
  %56 = load i64, ptr %13, align 8, !tbaa !34
  %57 = trunc i64 %56 to i32
  store i32 %57, ptr %14, align 4, !tbaa !26
  br label %58

58:                                               ; preds = %55, %48
  %59 = load i64, ptr %16, align 8, !tbaa !34
  %60 = icmp sgt i64 %59, 0
  br i1 %60, label %61, label %76

61:                                               ; preds = %58
  %62 = load i32, ptr %11, align 4, !tbaa !26
  %63 = and i32 %62, 128
  %64 = icmp ne i32 %63, 0
  br i1 %64, label %65, label %76

65:                                               ; preds = %61
  %66 = load i32, ptr %19, align 4, !tbaa !26
  %67 = icmp ne i32 %66, 6
  br i1 %67, label %68, label %76

68:                                               ; preds = %65
  %69 = load ptr, ptr %17, align 8, !tbaa !35
  %70 = load i64, ptr %69, align 8, !tbaa !34
  %71 = icmp ugt i64 %70, 2147483647
  br i1 %71, label %72, label %73

72:                                               ; preds = %68
  store i64 -1, ptr %9, align 8
  store i32 1, ptr %20, align 4
  br label %101

73:                                               ; preds = %68
  %74 = load ptr, ptr %17, align 8, !tbaa !35
  %75 = load i64, ptr %74, align 8, !tbaa !34
  store i64 %75, ptr %16, align 8, !tbaa !34
  br label %76

76:                                               ; preds = %73, %65, %61, %58
  %77 = load ptr, ptr %10, align 8, !tbaa !10
  %78 = getelementptr inbounds nuw %struct.bio_st, ptr %77, i32 0, i32 2
  %79 = load ptr, ptr %78, align 8, !tbaa !28
  %80 = load ptr, ptr %10, align 8, !tbaa !10
  %81 = load i32, ptr %11, align 4, !tbaa !26
  %82 = load ptr, ptr %12, align 8, !tbaa !33
  %83 = load i32, ptr %14, align 4, !tbaa !26
  %84 = load i64, ptr %15, align 8, !tbaa !34
  %85 = load i64, ptr %16, align 8, !tbaa !34
  %86 = call i64 %79(ptr noundef %80, i32 noundef %81, ptr noundef %82, i32 noundef %83, i64 noundef %84, i64 noundef %85)
  store i64 %86, ptr %18, align 8, !tbaa !34
  %87 = load i64, ptr %18, align 8, !tbaa !34
  %88 = icmp sgt i64 %87, 0
  br i1 %88, label %89, label %99

89:                                               ; preds = %76
  %90 = load i32, ptr %11, align 4, !tbaa !26
  %91 = and i32 %90, 128
  %92 = icmp ne i32 %91, 0
  br i1 %92, label %93, label %99

93:                                               ; preds = %89
  %94 = load i32, ptr %19, align 4, !tbaa !26
  %95 = icmp ne i32 %94, 6
  br i1 %95, label %96, label %99

96:                                               ; preds = %93
  %97 = load i64, ptr %18, align 8, !tbaa !34
  %98 = load ptr, ptr %17, align 8, !tbaa !35
  store i64 %97, ptr %98, align 8, !tbaa !34
  store i64 1, ptr %18, align 8, !tbaa !34
  br label %99

99:                                               ; preds = %96, %93, %89, %76
  %100 = load i64, ptr %18, align 8, !tbaa !34
  store i64 %100, ptr %9, align 8
  store i32 1, ptr %20, align 4
  br label %101

101:                                              ; preds = %99, %72, %54, %26
  call void @llvm.lifetime.end.p0(i64 4, ptr %19) #5
  call void @llvm.lifetime.end.p0(i64 8, ptr %18) #5
  %102 = load i64, ptr %9, align 8
  ret i64 %102
}

; Function Attrs: nounwind uwtable
define i32 @BIO_sendmmsg(ptr noundef %0, ptr noundef %1, i64 noundef %2, i64 noundef %3, i64 noundef %4, ptr noundef %5) #0 {
  %7 = alloca i32, align 4
  %8 = alloca ptr, align 8
  %9 = alloca ptr, align 8
  %10 = alloca i64, align 8
  %11 = alloca i64, align 8
  %12 = alloca i64, align 8
  %13 = alloca ptr, align 8
  %14 = alloca i64, align 8
  %15 = alloca %struct.bio_mmsg_cb_args_st, align 8
  %16 = alloca i32, align 4
  store ptr %0, ptr %8, align 8, !tbaa !10
  store ptr %1, ptr %9, align 8, !tbaa !46
  store i64 %2, ptr %10, align 8, !tbaa !34
  store i64 %3, ptr %11, align 8, !tbaa !34
  store i64 %4, ptr %12, align 8, !tbaa !34
  store ptr %5, ptr %13, align 8, !tbaa !35
  call void @llvm.lifetime.start.p0(i64 8, ptr %14) #5
  call void @llvm.lifetime.start.p0(i64 40, ptr %15) #5
  %17 = load ptr, ptr %8, align 8, !tbaa !10
  %18 = icmp eq ptr %17, null
  br i1 %18, label %19, label %21

19:                                               ; preds = %6
  %20 = load ptr, ptr %13, align 8, !tbaa !35
  store i64 0, ptr %20, align 8, !tbaa !34
  call void @ERR_new()
  call void @ERR_set_debug(ptr noundef @.str, i32 noundef 403, ptr noundef @__func__.BIO_sendmmsg)
  call void (i32, i32, ptr, ...) @ERR_set_error(i32 noundef 32, i32 noundef 786690, ptr noundef null)
  store i32 0, ptr %7, align 4
  store i32 1, ptr %16, align 4
  br label %100

21:                                               ; preds = %6
  %22 = load ptr, ptr %8, align 8, !tbaa !10
  %23 = getelementptr inbounds nuw %struct.bio_st, ptr %22, i32 0, i32 1
  %24 = load ptr, ptr %23, align 8, !tbaa !20
  %25 = icmp eq ptr %24, null
  br i1 %25, label %33, label %26

26:                                               ; preds = %21
  %27 = load ptr, ptr %8, align 8, !tbaa !10
  %28 = getelementptr inbounds nuw %struct.bio_st, ptr %27, i32 0, i32 1
  %29 = load ptr, ptr %28, align 8, !tbaa !20
  %30 = getelementptr inbounds nuw %struct.bio_method_st, ptr %29, i32 0, i32 12
  %31 = load ptr, ptr %30, align 8, !tbaa !48
  %32 = icmp eq ptr %31, null
  br i1 %32, label %33, label %35

33:                                               ; preds = %26, %21
  %34 = load ptr, ptr %13, align 8, !tbaa !35
  store i64 0, ptr %34, align 8, !tbaa !34
  call void @ERR_new()
  call void @ERR_set_debug(ptr noundef @.str, i32 noundef 409, ptr noundef @__func__.BIO_sendmmsg)
  call void (i32, i32, ptr, ...) @ERR_set_error(i32 noundef 32, i32 noundef 121, ptr noundef null)
  store i32 0, ptr %7, align 4
  store i32 1, ptr %16, align 4
  br label %100

35:                                               ; preds = %26
  %36 = load ptr, ptr %8, align 8, !tbaa !10
  %37 = getelementptr inbounds nuw %struct.bio_st, ptr %36, i32 0, i32 2
  %38 = load ptr, ptr %37, align 8, !tbaa !28
  %39 = icmp ne ptr %38, null
  br i1 %39, label %45, label %40

40:                                               ; preds = %35
  %41 = load ptr, ptr %8, align 8, !tbaa !10
  %42 = getelementptr inbounds nuw %struct.bio_st, ptr %41, i32 0, i32 3
  %43 = load ptr, ptr %42, align 8, !tbaa !29
  %44 = icmp ne ptr %43, null
  br i1 %44, label %45, label %62

45:                                               ; preds = %40, %35
  %46 = load ptr, ptr %9, align 8, !tbaa !46
  %47 = getelementptr inbounds nuw %struct.bio_mmsg_cb_args_st, ptr %15, i32 0, i32 0
  store ptr %46, ptr %47, align 8, !tbaa !49
  %48 = load i64, ptr %10, align 8, !tbaa !34
  %49 = getelementptr inbounds nuw %struct.bio_mmsg_cb_args_st, ptr %15, i32 0, i32 1
  store i64 %48, ptr %49, align 8, !tbaa !51
  %50 = load i64, ptr %11, align 8, !tbaa !34
  %51 = getelementptr inbounds nuw %struct.bio_mmsg_cb_args_st, ptr %15, i32 0, i32 2
  store i64 %50, ptr %51, align 8, !tbaa !52
  %52 = load i64, ptr %12, align 8, !tbaa !34
  %53 = getelementptr inbounds nuw %struct.bio_mmsg_cb_args_st, ptr %15, i32 0, i32 3
  store i64 %52, ptr %53, align 8, !tbaa !53
  %54 = load ptr, ptr %13, align 8, !tbaa !35
  %55 = getelementptr inbounds nuw %struct.bio_mmsg_cb_args_st, ptr %15, i32 0, i32 4
  store ptr %54, ptr %55, align 8, !tbaa !54
  %56 = load ptr, ptr %8, align 8, !tbaa !10
  %57 = call i64 @bio_call_callback(ptr noundef %56, i32 noundef 8, ptr noundef %15, i64 noundef 0, i32 noundef 0, i64 noundef 0, i64 noundef 1, ptr noundef null)
  store i64 %57, ptr %14, align 8, !tbaa !34
  %58 = load i64, ptr %14, align 8, !tbaa !34
  %59 = icmp ule i64 %58, 0
  br i1 %59, label %60, label %61

60:                                               ; preds = %45
  store i32 0, ptr %7, align 4
  store i32 1, ptr %16, align 4
  br label %100

61:                                               ; preds = %45
  br label %62

62:                                               ; preds = %61, %40
  %63 = load ptr, ptr %8, align 8, !tbaa !10
  %64 = getelementptr inbounds nuw %struct.bio_st, ptr %63, i32 0, i32 5
  %65 = load i32, ptr %64, align 8, !tbaa !24
  %66 = icmp ne i32 %65, 0
  br i1 %66, label %69, label %67

67:                                               ; preds = %62
  %68 = load ptr, ptr %13, align 8, !tbaa !35
  store i64 0, ptr %68, align 8, !tbaa !34
  call void @ERR_new()
  call void @ERR_set_debug(ptr noundef @.str, i32 noundef 428, ptr noundef @__func__.BIO_sendmmsg)
  call void (i32, i32, ptr, ...) @ERR_set_error(i32 noundef 32, i32 noundef 120, ptr noundef null)
  store i32 0, ptr %7, align 4
  store i32 1, ptr %16, align 4
  br label %100

69:                                               ; preds = %62
  %70 = load ptr, ptr %8, align 8, !tbaa !10
  %71 = getelementptr inbounds nuw %struct.bio_st, ptr %70, i32 0, i32 1
  %72 = load ptr, ptr %71, align 8, !tbaa !20
  %73 = getelementptr inbounds nuw %struct.bio_method_st, ptr %72, i32 0, i32 12
  %74 = load ptr, ptr %73, align 8, !tbaa !48
  %75 = load ptr, ptr %8, align 8, !tbaa !10
  %76 = load ptr, ptr %9, align 8, !tbaa !46
  %77 = load i64, ptr %10, align 8, !tbaa !34
  %78 = load i64, ptr %11, align 8, !tbaa !34
  %79 = load i64, ptr %12, align 8, !tbaa !34
  %80 = load ptr, ptr %13, align 8, !tbaa !35
  %81 = call i32 %74(ptr noundef %75, ptr noundef %76, i64 noundef %77, i64 noundef %78, i64 noundef %79, ptr noundef %80)
  %82 = sext i32 %81 to i64
  store i64 %82, ptr %14, align 8, !tbaa !34
  %83 = load ptr, ptr %8, align 8, !tbaa !10
  %84 = getelementptr inbounds nuw %struct.bio_st, ptr %83, i32 0, i32 2
  %85 = load ptr, ptr %84, align 8, !tbaa !28
  %86 = icmp ne ptr %85, null
  br i1 %86, label %92, label %87

87:                                               ; preds = %69
  %88 = load ptr, ptr %8, align 8, !tbaa !10
  %89 = getelementptr inbounds nuw %struct.bio_st, ptr %88, i32 0, i32 3
  %90 = load ptr, ptr %89, align 8, !tbaa !29
  %91 = icmp ne ptr %90, null
  br i1 %91, label %92, label %97

92:                                               ; preds = %87, %69
  %93 = load ptr, ptr %8, align 8, !tbaa !10
  %94 = load i64, ptr %14, align 8, !tbaa !34
  %95 = load i64, ptr %14, align 8, !tbaa !34
  %96 = call i64 @bio_call_callback(ptr noundef %93, i32 noundef 136, ptr noundef %15, i64 noundef %94, i32 noundef 0, i64 noundef 0, i64 noundef %95, ptr noundef null)
  store i64 %96, ptr %14, align 8, !tbaa !34
  br label %97

97:                                               ; preds = %92, %87
  %98 = load i64, ptr %14, align 8, !tbaa !34
  %99 = trunc i64 %98 to i32
  store i32 %99, ptr %7, align 4
  store i32 1, ptr %16, align 4
  br label %100

100:                                              ; preds = %97, %67, %60, %33, %19
  call void @llvm.lifetime.end.p0(i64 40, ptr %15) #5
  call void @llvm.lifetime.end.p0(i64 8, ptr %14) #5
  %101 = load i32, ptr %7, align 4
  ret i32 %101
}